target datalayout = "e-m:e-p270:32:32-p271:32:32-p272:64:64-i64:64-i128:128-f80:128-n8:16:32:64-S128"
target triple = "x86_64-pc-linux-gnu"

%struct.AVFilterFormatsConfig = type { ptr, ptr, ptr, ptr, ptr }

@in_pix_fmts = internal constant [6 x i32] [i32 2, i32 26, i32 35, i32 105, i32 99, i32 -1], align 16
@out_pix_fmts = internal constant [2 x i32] [i32 105, i32 -1], align 4

; Function Attrs: nounwind uwtable
define internal i32 @query_formats(ptr noundef %0, ptr noundef %1, ptr noundef %2) #1 {
  %4 = alloca i32, align 4
  %5 = alloca ptr, align 8
  %6 = alloca ptr, align 8
  %7 = alloca ptr, align 8
  %8 = alloca i32, align 4
  %9 = alloca i32, align 4
  store ptr %0, ptr %5, align 8, !tbaa !4
  store ptr %1, ptr %6, align 8, !tbaa !24
  store ptr %2, ptr %7, align 8, !tbaa !24
  call void @llvm.lifetime.start.p0(i64 4, ptr %8) #8
  %10 = call ptr @ff_make_format_list(ptr noundef @in_pix_fmts)
  %11 = load ptr, ptr %6, align 8, !tbaa !24
  %12 = getelementptr inbounds ptr, ptr %11, i64 0
  %13 = load ptr, ptr %12, align 8, !tbaa !26
  %14 = getelementptr inbounds nuw %struct.AVFilterFormatsConfig, ptr %13, i32 0, i32 0
  %15 = call i32 @ff_formats_ref(ptr noundef %10, ptr noundef %14)
  store i32 %15, ptr %8, align 4, !tbaa !28
  %16 = icmp slt i32 %15, 0
  br i1 %16, label %17, label %19

17:                                               ; preds = %3
  %18 = load i32, ptr %8, align 4, !tbaa !28
  store i32 %18, ptr %4, align 4
  store i32 1, ptr %9, align 4
  br label %30

19:                                               ; preds = %3
  %20 = call ptr @ff_make_format_list(ptr noundef @out_pix_fmts)
  %21 = load ptr, ptr %7, align 8, !tbaa !24
  %22 = getelementptr inbounds ptr, ptr %21, i64 0
  %23 = load ptr, ptr %22, align 8, !tbaa !26
  %24 = getelementptr inbounds nuw %struct.AVFilterFormatsConfig, ptr %23, i32 0, i32 0
  %25 = call i32 @ff_formats_ref(ptr noundef %20, ptr noundef %24)
  store i32 %25, ptr %8, align 4, !tbaa !28
  %26 = icmp slt i32 %25, 0
  br i1 %26, label %27, label %29

27:                                               ; preds = %19
  %28 = load i32, ptr %8, align 4, !tbaa !28
  store i32 %28, ptr %4, align 4
  store i32 1, ptr %9, align 4
  br label %30

29:                                               ; preds = %19
  store i32 0, ptr %4, align 4
  store i32 1, ptr %9, align 4
  br label %30

30:                                               ; preds = %29, %27, %17
  call void @llvm.lifetime.end.p0(i64 4, ptr %8) #8
  %31 = load i32, ptr %4, align 4
  ret i32 %31
}